target datalayout = "e-m:e-p270:32:32-p271:32:32-p272:64:64-i64:64-i128:128-f80:128-n8:16:32:64-S128"
target triple = "x86_64-pc-linux-gnu"

@pmi_version = internal global i32 0, align 4
@pmi_subversion = internal global i32 0, align 4
@.str = private unnamed_addr constant [69 x i8] c"mpi/pmi2: inconsistent client PMI version: %d.%d(req) <> %d.%d(orig)\00", align 1
@.str.1 = private unnamed_addr constant [54 x i8] c"%s: %s: mpi/pmi2: got client PMI1 init, version=%d.%d\00", align 1
@plugin_type = external constant [0 x i8], align 1
@__func__.set_pmi_version = private unnamed_addr constant [16 x i8] c"set_pmi_version\00", align 1
@.str.2 = private unnamed_addr constant [41 x i8] c"mpi/pmi2: unsupported PMI version: %d.%d\00", align 1

; Function Attrs: nounwind uwtable
define dso_local i32 @set_pmi_version(i32 noundef %0, i32 noundef %1) #0 {
  %3 = alloca i32, align 4
  %4 = alloca i32, align 4
  %5 = alloca i32, align 4
  store i32 %0, ptr %4, align 4
  store i32 %1, ptr %5, align 4
  %6 = load i32, ptr %4, align 4
  %7 = icmp eq i32 %6, 1
  br i1 %7, label %8, label %11

8:                                                ; preds = %2
  %9 = load i32, ptr %5, align 4
  %10 = icmp eq i32 %9, 1
  br i1 %10, label %17, label %11

11:                                               ; preds = %8, %2
  %12 = load i32, ptr %4, align 4
  %13 = icmp eq i32 %12, 2
  br i1 %13, label %14, label %52

14:                                               ; preds = %11
  %15 = load i32, ptr %5, align 4
  %16 = icmp eq i32 %15, 0
  br i1 %16, label %17, label %52

17:                                               ; preds = %14, %8
  %18 = load i32, ptr @pmi_version, align 4
  %19 = icmp ne i32 %18, 0
  br i1 %19, label %20, label %34

20:                                               ; preds = %17
  %21 = load i32, ptr @pmi_version, align 4
  %22 = load i32, ptr %4, align 4
  %23 = icmp ne i32 %21, %22
  br i1 %23, label %28, label %24

24:                                               ; preds = %20
  %25 = load i32, ptr @pmi_subversion, align 4
  %26 = load i32, ptr %5, align 4
  %27 = icmp ne i32 %25, %26
  br i1 %27, label %28, label %34

28:                                               ; preds = %24, %20
  %29 = load i32, ptr %4, align 4
  %30 = load i32, ptr %5, align 4
  %31 = load i32, ptr @pmi_version, align 4
  %32 = load i32, ptr @pmi_subversion, align 4
  %33 = call i32 (ptr, ...) @slurm_error(ptr noundef @.str, i32 noundef %29, i32 noundef %30, i32 noundef %31, i32 noundef %32)
  store i32 -1, ptr %3, align 4
  br label %57

34:                                               ; preds = %24, %17
  %35 = load i32, ptr @pmi_version, align 4
  %36 = icmp ne i32 %35, 0
  br i1 %36, label %50, label %37

37:                                               ; preds = %34
  br label %38

38:                                               ; preds = %37
  br label %39

39:                                               ; preds = %38
  %40 = call i32 @slurm_get_log_level()
  %41 = icmp sge i32 %40, 4
  br i1 %41, label %42, label %45

42:                                               ; preds = %39
  %43 = load i32, ptr %4, align 4
  %44 = load i32, ptr %5, align 4
  call void (i32, ptr, ...) @slurm_log_var(i32 noundef 4, ptr noundef @.str.1, ptr noundef @plugin_type, ptr noundef @__func__.set_pmi_version, i32 noundef %43, i32 noundef %44)
  br label %45

45:                                               ; preds = %42, %39
  br label %46

46:                                               ; preds = %45
  br label %47

47:                                               ; preds = %46
  %48 = load i32, ptr %4, align 4
  store i32 %48, ptr @pmi_version, align 4
  %49 = load i32, ptr %5, align 4
  store i32 %49, ptr @pmi_subversion, align 4
  br label %50

50:                                               ; preds = %47, %34
  br label %51

51:                                               ; preds = %50
  br label %56

52:                                               ; preds = %14, %11
  %53 = load i32, ptr %4, align 4
  %54 = load i32, ptr %5, align 4
  %55 = call i32 (ptr, ...) @slurm_error(ptr noundef @.str.2, i32 noundef %53, i32 noundef %54)
  store i32 -1, ptr %3, align 4
  br label %57

56:                                               ; preds = %51
  store i32 0, ptr %3, align 4
  br label %57

57:                                               ; preds = %56, %52, %28
  %58 = load i32, ptr %3, align 4
  ret i32 %58
}