; Function Attrs: nounwind uwtable
define dso_local range(i32 -1, 1) i32 @set_pmi_version(i32 noundef %0, i32 noundef %1) local_unnamed_addr #2 {
  %3 = icmp eq i32 %0, 1
  %4 = icmp eq i32 %1, 1
  %or.cond = and i1 %3, %4
  br i1 %or.cond, label %8, label %5

5:                                                ; preds = %2
  %6 = icmp eq i32 %0, 2
  %7 = icmp eq i32 %1, 0
  %or.cond3 = and i1 %6, %7
  br i1 %or.cond3, label %8, label %19

8:                                                ; preds = %5, %2
  %9 = load i32, ptr @pmi_version, align 4
  %.not = icmp eq i32 %9, 0
  br i1 %.not, label %14, label %10

10:                                               ; preds = %8
  %.not19 = icmp eq i32 %9, %0
  %11 = load i32, ptr @pmi_subversion, align 4
  %.not20 = icmp eq i32 %11, %1
  %or.cond22 = select i1 %.not19, i1 %.not20, i1 false
  br i1 %or.cond22, label %21, label %12

12:                                               ; preds = %10
  %13 = tail call i32 (ptr, ...) @slurm_error(ptr noundef nonnull @.str, i32 noundef %0, i32 noundef %1, i32 noundef %9, i32 noundef %11) #11
  br label %21

14:                                               ; preds = %8
  %15 = tail call i32 @slurm_get_log_level() #11
  %16 = icmp sgt i32 %15, 3
  br i1 %16, label %17, label %18

17:                                               ; preds = %14
  tail call void (i32, ptr, ...) @slurm_log_var(i32 noundef 4, ptr noundef nonnull @.str.1, ptr noundef nonnull @plugin_type, ptr noundef nonnull @__func__.set_pmi_version, i32 noundef %0, i32 noundef %1) #11
  br label %18

18:                                               ; preds = %17, %14
  store i32 %0, ptr @pmi_version, align 4
  store i32 %1, ptr @pmi_subversion, align 4
  br label %21

19:                                               ; preds = %5
  %20 = tail call i32 (ptr, ...) @slurm_error(ptr noundef nonnull @.str.2, i32 noundef %0, i32 noundef %1) #11
  br label %21

21:                                               ; preds = %10, %18, %19, %12
  %.0 = phi i32 [ -1, %12 ], [ -1, %19 ], [ 0, %18 ], [ 0, %10 ]
  ret i32 %.0
}